; ModuleID = '46/1471.c'
source_filename = "46/1471.c"
target datalayout = "e-m:e-p270:32:32-p271:32:32-p272:64:64-i64:64-f80:128-n8:16:32:64-S128"
target triple = "x86_64-pc-linux-gnu"

@.str = private unnamed_addr constant [5 x i8] c"%d%d\00", align 1
@.str.1 = private unnamed_addr constant [3 x i8] c"%d\00", align 1
@.str.2 = private unnamed_addr constant [4 x i8] c"%d\0A\00", align 1

; Function Attrs: noinline nounwind uwtable
define dso_local i32 @main() #0 {
  %1 = alloca i32, align 4
  %2 = alloca [100 x [100 x i32]], align 16
  %3 = alloca i32, align 4
  %4 = alloca i32, align 4
  %5 = alloca i32, align 4
  %6 = alloca i32, align 4
  %7 = alloca i32, align 4
  %8 = alloca i32, align 4
  store i32 0, i32* %1, align 4
  store i32 0, i32* %8, align 4
  %9 = call i32 (i8*, ...) @__isoc99_scanf(i8* getelementptr inbounds ([5 x i8], [5 x i8]* @.str, i64 0, i64 0), i32* %3, i32* %4)
  %10 = load i32, i32* %3, align 4
  %11 = load i32, i32* %4, align 4
  %12 = mul nsw i32 %10, %11
  store i32 %12, i32* %7, align 4
  store i32 0, i32* %5, align 4
  br label %13

13:                                               ; preds = %34, %0
  %14 = load i32, i32* %5, align 4
  %15 = load i32, i32* %3, align 4
  %16 = icmp slt i32 %14, %15
  br i1 %16, label %17, label %37

17:                                               ; preds = %13
  store i32 0, i32* %6, align 4
  br label %18

18:                                               ; preds = %30, %17
  %19 = load i32, i32* %6, align 4
  %20 = load i32, i32* %4, align 4
  %21 = icmp slt i32 %19, %20
  br i1 %21, label %22, label %33

22:                                               ; preds = %18
  %23 = load i32, i32* %5, align 4
  %24 = sext i32 %23 to i64
  %25 = getelementptr inbounds [100 x [100 x i32]], [100 x [100 x i32]]* %2, i64 0, i64 %24
  %26 = load i32, i32* %6, align 4
  %27 = sext i32 %26 to i64
  %28 = getelementptr inbounds [100 x i32], [100 x i32]* %25, i64 0, i64 %27
  %29 = call i32 (i8*, ...) @__isoc99_scanf(i8* getelementptr inbounds ([3 x i8], [3 x i8]* @.str.1, i64 0, i64 0), i32* %28)
  br label %30

30:                                               ; preds = %22
  %31 = load i32, i32* %6, align 4
  %32 = add nsw i32 %31, 1
  store i32 %32, i32* %6, align 4
  br label %18

33:                                               ; preds = %18
  br label %34

34:                                               ; preds = %33
  %35 = load i32, i32* %5, align 4
  %36 = add nsw i32 %35, 1
  store i32 %36, i32* %5, align 4
  br label %13

37:                                               ; preds = %13
  store i32 0, i32* %5, align 4
  br label %38

38:                                               ; preds = %156, %37
  %39 = load i32, i32* %5, align 4
  store i32 %39, i32* %6, align 4
  br label %40

40:                                               ; preds = %57, %38
  %41 = load i32, i32* %6, align 4
  %42 = load i32, i32* %4, align 4
  %43 = load i32, i32* %5, align 4
  %44 = sub nsw i32 %42, %43
  %45 = icmp slt i32 %41, %44
  br i1 %45, label %46, label %60

46:                                               ; preds = %40
  %47 = load i32, i32* %5, align 4
  %48 = sext i32 %47 to i64
  %49 = getelementptr inbounds [100 x [100 x i32]], [100 x [100 x i32]]* %2, i64 0, i64 %48
  %50 = load i32, i32* %6, align 4
  %51 = sext i32 %50 to i64
  %52 = getelementptr inbounds [100 x i32], [100 x i32]* %49, i64 0, i64 %51
  %53 = load i32, i32* %52, align 4
  %54 = call i32 (i8*, ...) @printf(i8* getelementptr inbounds ([4 x i8], [4 x i8]* @.str.2, i64 0, i64 0), i32 %53)
  %55 = load i32, i32* %8, align 4
  %56 = add nsw i32 %55, 1
  store i32 %56, i32* %8, align 4
  br label %57

57:                                               ; preds = %46
  %58 = load i32, i32* %6, align 4
  %59 = add nsw i32 %58, 1
  store i32 %59, i32* %6, align 4
  br label %40

60:                                               ; preds = %40
  %61 = load i32, i32* %8, align 4
  %62 = load i32, i32* %7, align 4
  %63 = icmp eq i32 %61, %62
  br i1 %63, label %64, label %65

64:                                               ; preds = %60
  br label %159

65:                                               ; preds = %60
  %66 = load i32, i32* %5, align 4
  %67 = add nsw i32 %66, 1
  store i32 %67, i32* %6, align 4
  br label %68

68:                                               ; preds = %88, %65
  %69 = load i32, i32* %6, align 4
  %70 = load i32, i32* %3, align 4
  %71 = load i32, i32* %5, align 4
  %72 = sub nsw i32 %70, %71
  %73 = icmp slt i32 %69, %72
  br i1 %73, label %74, label %91

74:                                               ; preds = %68
  %75 = load i32, i32* %6, align 4
  %76 = sext i32 %75 to i64
  %77 = getelementptr inbounds [100 x [100 x i32]], [100 x [100 x i32]]* %2, i64 0, i64 %76
  %78 = load i32, i32* %4, align 4
  %79 = sub nsw i32 %78, 1
  %80 = load i32, i32* %5, align 4
  %81 = sub nsw i32 %79, %80
  %82 = sext i32 %81 to i64
  %83 = getelementptr inbounds [100 x i32], [100 x i32]* %77, i64 0, i64 %82
  %84 = load i32, i32* %83, align 4
  %85 = call i32 (i8*, ...) @printf(i8* getelementptr inbounds ([4 x i8], [4 x i8]* @.str.2, i64 0, i64 0), i32 %84)
  %86 = load i32, i32* %8, align 4
  %87 = add nsw i32 %86, 1
  store i32 %87, i32* %8, align 4
  br label %88

88:                                               ; preds = %74
  %89 = load i32, i32* %6, align 4
  %90 = add nsw i32 %89, 1
  store i32 %90, i32* %6, align 4
  br label %68

91:                                               ; preds = %68
  %92 = load i32, i32* %8, align 4
  %93 = load i32, i32* %7, align 4
  %94 = icmp eq i32 %92, %93
  br i1 %94, label %95, label %96

95:                                               ; preds = %91
  br label %159

96:                                               ; preds = %91
  %97 = load i32, i32* %4, align 4
  %98 = load i32, i32* %5, align 4
  %99 = sub nsw i32 %97, %98
  %100 = sub nsw i32 %99, 2
  store i32 %100, i32* %6, align 4
  br label %101

101:                                              ; preds = %119, %96
  %102 = load i32, i32* %6, align 4
  %103 = load i32, i32* %5, align 4
  %104 = icmp sge i32 %102, %103
  br i1 %104, label %105, label %122

105:                                              ; preds = %101
  %106 = load i32, i32* %3, align 4
  %107 = load i32, i32* %5, align 4
  %108 = sub nsw i32 %106, %107
  %109 = sub nsw i32 %108, 1
  %110 = sext i32 %109 to i64
  %111 = getelementptr inbounds [100 x [100 x i32]], [100 x [100 x i32]]* %2, i64 0, i64 %110
  %112 = load i32, i32* %6, align 4
  %113 = sext i32 %112 to i64
  %114 = getelementptr inbounds [100 x i32], [100 x i32]* %111, i64 0, i64 %113
  %115 = load i32, i32* %114, align 4
  %116 = call i32 (i8*, ...) @printf(i8* getelementptr inbounds ([4 x i8], [4 x i8]* @.str.2, i64 0, i64 0), i32 %115)
  %117 = load i32, i32* %8, align 4
  %118 = add nsw i32 %117, 1
  store i32 %118, i32* %8, align 4
  br label %119

119:                                              ; preds = %105
  %120 = load i32, i32* %6, align 4
  %121 = add nsw i32 %120, -1
  store i32 %121, i32* %6, align 4
  br label %101

122:                                              ; preds = %101
  %123 = load i32, i32* %8, align 4
  %124 = load i32, i32* %7, align 4
  %125 = icmp eq i32 %123, %124
  br i1 %125, label %126, label %127

126:                                              ; preds = %122
  br label %159

127:                                              ; preds = %122
  %128 = load i32, i32* %3, align 4
  %129 = load i32, i32* %5, align 4
  %130 = sub nsw i32 %128, %129
  %131 = sub nsw i32 %130, 2
  store i32 %131, i32* %6, align 4
  br label %132

132:                                              ; preds = %147, %127
  %133 = load i32, i32* %6, align 4
  %134 = load i32, i32* %5, align 4
  %135 = icmp sgt i32 %133, %134
  br i1 %135, label %136, label %150

136:                                              ; preds = %132
  %137 = load i32, i32* %6, align 4
  %138 = sext i32 %137 to i64
  %139 = getelementptr inbounds [100 x [100 x i32]], [100 x [100 x i32]]* %2, i64 0, i64 %138
  %140 = load i32, i32* %5, align 4
  %141 = sext i32 %140 to i64
  %142 = getelementptr inbounds [100 x i32], [100 x i32]* %139, i64 0, i64 %141
  %143 = load i32, i32* %142, align 4
  %144 = call i32 (i8*, ...) @printf(i8* getelementptr inbounds ([4 x i8], [4 x i8]* @.str.2, i64 0, i64 0), i32 %143)
  %145 = load i32, i32* %8, align 4
  %146 = add nsw i32 %145, 1
  store i32 %146, i32* %8, align 4
  br label %147

147:                                              ; preds = %136
  %148 = load i32, i32* %6, align 4
  %149 = add nsw i32 %148, -1
  store i32 %149, i32* %6, align 4
  br label %132

150:                                              ; preds = %132
  %151 = load i32, i32* %8, align 4
  %152 = load i32, i32* %7, align 4
  %153 = icmp eq i32 %151, %152
  br i1 %153, label %154, label %155

154:                                              ; preds = %150
  br label %159

155:                                              ; preds = %150
  br label %156

156:                                              ; preds = %155
  %157 = load i32, i32* %5, align 4
  %158 = add nsw i32 %157, 1
  store i32 %158, i32* %5, align 4
  br label %38

159:                                              ; preds = %154, %126, %95, %64
  %160 = load i32, i32* %1, align 4
  ret i32 %160
}

declare dso_local i32 @__isoc99_scanf(i8*, ...) #1

declare dso_local i32 @printf(i8*, ...) #1


!llvm.module.flags = !{!0}
!llvm.ident = !{!1}

!0 = !{i32 1, !"wchar_size", i32 4}
!1 = !{!"clang version 10.0.0-4ubuntu1 "}
